; Function Attrs: nounwind sspstrong uwtable
define hidden i64 @rb_f_require_relative(i64 %0, i64 noundef %1) #0 {
  %3 = tail call i64 @rb_current_realfilepath() #7
  %4 = icmp eq i64 %3, 4
  br i1 %4, label %5, label %6

5:                                                ; preds = %2
  tail call void (ptr, ...) @rb_loaderror(ptr noundef nonnull @.str) #21
  unreachable

6:                                                ; preds = %2
  %7 = tail call i64 @rb_file_dirname(i64 noundef %3) #7
  %8 = tail call i64 @rb_file_absolute_path(i64 noundef %1, i64 noundef %7) #7
  %9 = tail call align 8 ptr @llvm.threadlocal.address.p0(ptr align 8 @ruby_current_ec)
  %10 = load ptr, ptr %9, align 8, !tbaa !55
  %11 = load ptr, ptr @ruby_single_main_ractor, align 8, !tbaa !91
  %.not.i.i = icmp eq ptr %11, null
  br i1 %.not.i.i, label %rb_ractor_main_p.exit.i, label %rb_ractor_main_p.exit.thread.i

rb_ractor_main_p.exit.i:                          ; preds = %6
  %12 = tail call zeroext i1 @rb_ractor_main_p_() #7
  br i1 %12, label %rb_ractor_main_p.exit.thread.i, label %13

13:                                               ; preds = %rb_ractor_main_p.exit.i
  %14 = tail call i64 @rb_ractor_require(i64 noundef %8) #7
  br label %rb_require_string_internal.exit

rb_ractor_main_p.exit.thread.i:                   ; preds = %rb_ractor_main_p.exit.i, %6
  %15 = tail call ptr @rb_ruby_verbose_ptr() #7
  %16 = load i64, ptr %15, align 8, !tbaa !42
  %17 = and i64 %16, -5
  %18 = icmp ne i64 %17, 0
  %19 = tail call fastcc i32 @require_internal(ptr noundef %10, i64 noundef %8, i32 noundef 1, i1 noundef zeroext %18)
  %20 = icmp sgt i32 %19, 1
  br i1 %20, label %21, label %25

21:                                               ; preds = %rb_ractor_main_p.exit.thread.i
  %22 = getelementptr i8, ptr %10, i64 24
  %.val.i = load ptr, ptr %22, align 8, !tbaa !82
  %23 = getelementptr inbounds nuw i8, ptr %.val.i, i64 64
  store i32 %19, ptr %23, align 8, !tbaa !79
  %24 = getelementptr inbounds nuw i8, ptr %.val.i, i64 16
  tail call void @llvm.eh.sjlj.longjmp(ptr nonnull %24)
  unreachable

25:                                               ; preds = %rb_ractor_main_p.exit.thread.i
  %26 = icmp slt i32 %19, 0
  br i1 %26, label %27, label %28

27:                                               ; preds = %25
  tail call fastcc void @load_failed(i64 noundef %8) #26
  unreachable

28:                                               ; preds = %25
  %.not.i = icmp eq i32 %19, 0
  %29 = select i1 %.not.i, i64 0, i64 20
  br label %rb_require_string_internal.exit

rb_require_string_internal.exit:                  ; preds = %13, %28
  %.0.i = phi i64 [ %29, %28 ], [ %14, %13 ]
  ret i64 %.0.i
}